(dp0
Vsg_bundle_data
p1
(dp2
Vtype
p3
VCustomNonProjectEntity07
p4
sVid
p5
I81
sVsg_system_name
p6
Vtk-config-default2
p7
sVsg_status_list
p8
Vhidden
p9
sVsg_deprecation_message
p10
NssVsg_version_data
p11
(dp12
Vtype
p13
VCustomNonProjectEntity08
p14
sVid
p15
I2986
sVcode
p16
Vv1.6.0
p17
sVsg_status_list
p18
Vprod
p19
sVdescription
p20
V[No wiki release notes found]
p21
sVtags
p22
(lp23
sVsg_detailed_release_notes
p24
(dp25
Vurl
p26
Vhttps://community.shotgridsoftware.com/t/shotgrid-integration-1-6-release-notes/17759
p27
sVname
p28
Vv1.6.0
p29
sVcontent_type
p30
NsVlink_type
p31
Vweb
p32
sg13
VAttachment
p33
sg15
I30582
ssVsg_documentation
p34
NsVsg_payload
p35
(dp36
g26
Vhttps://s3-proxy.shotgunstudio.com/d18c13bf0e59a9a82f18be518a1b6b508bcbd774/4d2863bea08a0d0bf41c715991952db6a5b0df0e/tk-config-default2_v1.6.0.zip?response-content-disposition=filename%3D%22tk-config-default2_v1.6.0.zip%22&x-amz-meta-user-id=42&x-amz-meta-user-type=ApiUser&X-Amz-Algorithm=AWS4-HMAC-SHA256&X-Amz-Credential=ASIAYJG6Z4JISAPVMVWI%2F20231004%2Fus-west-2%2Fs3%2Faws4_request&X-Amz-Date=20231004T060756Z&X-Amz-SignedHeaders=host&X-Amz-Expires=900&X-Amz-Security-Token=IQoJb3JpZ2luX2VjEDcaCXVzLWVhc3QtMSJHMEUCIQCpWelG1c3WahxKodTJU4qVqnJbu8oCSd7BqXNYQVuH%2BAIgcjUhCeaAyACfWcGUPWMZ7PyroyLS7BsxjZzQ4C0zUysqmAIIPxAAGgw1Njk1NTA0MzA4MDEiDMFxPwVHr45%2FUsVnlCr1AR%2BIOXWECdW6AP9rAz492J03fgBZwQgdFDyOdse7pU997OlqpWIKgDi3prOqZMTRj5%2F0KSemuuCyO6Jtt2Nj2g5JsoqA%2FkmCXoZhO%2Fmev9DSP4LQUYP5Jwbk%2FBYbj7L54AKemlAfO0X6D5ajqSxWyBuAz1EKi8v7LwWhVdys0gvievKrXazIj3xSFmPxsBd8L7vLtrvtwCejVBQnIGVQyn3W1DanmLItvJz6yjHC%2FLSRR7KD28Y1rO%2BI7b80AjYP6jvo%2FpSpXTaZ55Hzy8g6Pwzv9b3kpQAZalIuBg8vX4ZLUJ%2FzdA2w%2BRLOWG7UYLQ3RhjwPxXwMPOA9KgGOp0BkSDFTRUlAF2VgnNt6ytA5TK0UdkLaaQZjWuTIyQYl3iDHi827TfAuxy9OiRNM%2FSEOulMEqqAC%2Byes6bF9Xf6rDcqJ%2FPNK9yfhekJuKI%2BVAgROGUM2B5xWrDePeB947aCw6p%2BTejYFEfbUYur%2FMllaqN%2F%2BTYaNCNJt3RglgqrRx7nTi%2FEc%2F%2FNe3gkZZiQUTbyZ22O5k44Mb8%2B%2Bo3%2BGg%3D%3D&X-Amz-Signature=c5632b2f1811376a240f7563d69aff1cd07365886b9ffd23106a51929b9f95e0
p37
sg28
Vtk-config-default2_v1.6.0.zip
p38
sg30
Vapplication/zip
p39
sg31
Vupload
p40
sg13
VAttachment
p41
sg15
I30576
sss.